; Function Attrs: mustprogress nofree nosync nounwind willreturn memory(read, inaccessiblemem: none) uwtable
define i32 @llama_sampler_get_seed(ptr noundef readonly captures(none) %0) local_unnamed_addr #13 {
  %2 = load ptr, ptr %0, align 8, !tbaa !3
  %3 = icmp eq ptr %2, @_ZL20llama_sampler_dist_i
  br i1 %3, label %4, label %9

4:                                                ; preds = %1
  %5 = getelementptr inbounds nuw i8, ptr %0, i64 8
  %6 = load ptr, ptr %5, align 8, !tbaa !9
  %7 = getelementptr inbounds nuw i8, ptr %6, i64 4
  %8 = load i32, ptr %7, align 4, !tbaa !45
  br label %.thread

9:                                                ; preds = %1
  %10 = icmp eq ptr %2, @_ZL24llama_sampler_mirostat_i
  br i1 %10, label %11, label %16

11:                                               ; preds = %9
  %12 = getelementptr inbounds nuw i8, ptr %0, i64 8
  %13 = load ptr, ptr %12, align 8, !tbaa !9
  %14 = getelementptr inbounds nuw i8, ptr %13, i64 8
  %15 = load i32, ptr %14, align 8, !tbaa !85
  br label %.thread

16:                                               ; preds = %9
  %17 = icmp eq ptr %2, @_ZL27llama_sampler_mirostat_v2_i
  br i1 %17, label %18, label %23

18:                                               ; preds = %16
  %19 = getelementptr inbounds nuw i8, ptr %0, i64 8
  %20 = load ptr, ptr %19, align 8, !tbaa !9
  %21 = getelementptr inbounds nuw i8, ptr %20, i64 4
  %22 = load i32, ptr %21, align 4, !tbaa !92
  br label %.thread

23:                                               ; preds = %16
  %24 = icmp eq ptr %2, @_ZL21llama_sampler_chain_i
  br i1 %24, label %25, label %.thread

25:                                               ; preds = %23
  %26 = getelementptr inbounds nuw i8, ptr %0, i64 8
  %27 = load ptr, ptr %26, align 8, !tbaa !9
  %28 = getelementptr inbounds nuw i8, ptr %27, i64 8
  %29 = getelementptr inbounds nuw i8, ptr %27, i64 16
  %30 = load ptr, ptr %29, align 8, !tbaa !193, !noalias !194
  %31 = load ptr, ptr %28, align 8, !tbaa !193, !noalias !197
  br label %32

32:                                               ; preds = %33, %25
  %.sroa.020.0 = phi ptr [ %30, %25 ], [ %34, %33 ]
  %.not23 = icmp eq ptr %.sroa.020.0, %31
  br i1 %.not23, label %.thread, label %33

33:                                               ; preds = %32
  %34 = getelementptr inbounds i8, ptr %.sroa.020.0, i64 -8
  %35 = load ptr, ptr %34, align 8, !tbaa !39
  %36 = tail call i32 @llama_sampler_get_seed(ptr noundef %35)
  %.not = icmp eq i32 %36, -1
  br i1 %.not, label %32, label %.thread, !llvm.loop !200

.thread:                                          ; preds = %32, %33, %23, %18, %11, %4
  %.0 = phi i32 [ %8, %4 ], [ %15, %11 ], [ %22, %18 ], [ -1, %23 ], [ -1, %32 ], [ %36, %33 ]
  ret i32 %.0
}